; Function Attrs: mustprogress uwtable
define internal noundef i32 @_ZN7rocksdb12_GLOBAL__N_18PosixEnv20GetBackgroundThreadsENS_3Env8PriorityE(ptr nocapture noundef nonnull readonly align 8 dereferenceable(200) %this, i32 noundef %pri) unnamed_addr #3 align 2 {
entry:
  %thread_pools_ = getelementptr inbounds i8, ptr %this, i64 168
  %0 = load ptr, ptr %thread_pools_, align 8
  %conv = zext i32 %pri to i64
  %1 = load ptr, ptr %0, align 8
  %add.ptr.i = getelementptr inbounds %"class.rocksdb::ThreadPoolImpl", ptr %1, i64 %conv
  %vtable = load ptr, ptr %add.ptr.i, align 8
  %vfn = getelementptr inbounds i8, ptr %vtable, i64 32
  %2 = load ptr, ptr %vfn, align 8
  %call2 = tail call noundef i32 %2(ptr noundef nonnull align 8 dereferenceable(16) %add.ptr.i)
  ret i32 %call2
}